target datalayout = "e-m:e-p270:32:32-p271:32:32-p272:64:64-i64:64-i128:128-f80:128-n8:16:32:64-S128"
target triple = "x86_64-pc-linux-gnu"

%struct.pa_sample_spec = type { i32, i32, i8 }
%struct.PaPulseAudio_Stream = type { %struct.PaUtilStreamRepresentation, %struct.PaUtilCpuLoadMeasurer, %struct.PaUtilBufferProcessor, ptr, i64, ptr, ptr, %struct.pa_sample_spec, %struct.pa_sample_spec, ptr, ptr, %struct.pa_buffer_attr, %struct.pa_buffer_attr, i32, i32, i32, i32, i64, i64, i32, i32, i32, i32, ptr, ptr, %struct.PaUtilRingBuffer, i64, i32, i32, i32, i32 }
%struct.PaUtilStreamRepresentation = type { i64, ptr, ptr, ptr, ptr, ptr, %struct.PaStreamInfo }
%struct.PaStreamInfo = type { i32, double, double, double }
%struct.PaUtilCpuLoadMeasurer = type { double, double, double }
%struct.PaUtilBufferProcessor = type { i64, i64, i32, i32, i32, i32, i64, i32, i32, i32, i32, ptr, ptr, i32, i32, i32, i32, ptr, ptr, i64, i64, ptr, ptr, i64, ptr, ptr, i64, ptr, i64, i32, [2 x i64], [2 x ptr], i32, [2 x i64], [2 x ptr], %struct.PaUtilTriangularDitherGenerator, double, ptr, ptr }
%struct.PaUtilTriangularDitherGenerator = type { i32, i32, i32 }
%struct.pa_buffer_attr = type { i32, i32, i32, i32, i32 }
%struct.PaUtilRingBuffer = type { i64, i64, i64, i64, i64, i64, ptr }

; Function Attrs: nounwind uwtable
define void @_PaPulseAudio_WriteRingBuffer(ptr noundef %0, ptr noundef %1, i64 noundef %2) #0 {
  %4 = alloca ptr, align 8
  %5 = alloca ptr, align 8
  %6 = alloca i64, align 8
  %7 = alloca [768800 x i8], align 16
  store ptr %0, ptr %4, align 8, !tbaa !40
  store ptr %1, ptr %5, align 8, !tbaa !19
  store i64 %2, ptr %6, align 8, !tbaa !12
  %8 = load ptr, ptr %4, align 8, !tbaa !40
  %9 = call i64 @PaUtil_GetRingBufferWriteAvailable(ptr noundef %8)
  %10 = load i64, ptr %6, align 8, !tbaa !12
  %11 = icmp ult i64 %9, %10
  br i1 %11, label %12, label %17

12:                                               ; preds = %3
  call void @llvm.lifetime.start.p0(i64 768800, ptr %7) #6
  %13 = load ptr, ptr %4, align 8, !tbaa !40
  %14 = getelementptr inbounds [768800 x i8], ptr %7, i64 0, i64 0
  %15 = load i64, ptr %6, align 8, !tbaa !12
  %16 = call i64 @PaUtil_ReadRingBuffer(ptr noundef %13, ptr noundef %14, i64 noundef %15)
  call void @llvm.lifetime.end.p0(i64 768800, ptr %7) #6
  br label %17

17:                                               ; preds = %12, %3
  %18 = load ptr, ptr %4, align 8, !tbaa !40
  %19 = load ptr, ptr %5, align 8, !tbaa !19
  %20 = load i64, ptr %6, align 8, !tbaa !12
  %21 = call i64 @PaUtil_WriteRingBuffer(ptr noundef %18, ptr noundef %19, i64 noundef %20)
  ret void
}

; Function Attrs: nounwind uwtable
define void @_PaPulseAudio_Read(ptr noundef %0, i64 noundef %1) #0 {
  %3 = alloca ptr, align 8
  %4 = alloca i64, align 8
  %5 = alloca ptr, align 8
  store ptr %0, ptr %3, align 8, !tbaa !42
  store i64 %1, ptr %4, align 8, !tbaa !12
  call void @llvm.lifetime.start.p0(i64 8, ptr %5) #6
  store ptr null, ptr %5, align 8, !tbaa !19
  %6 = load ptr, ptr %3, align 8, !tbaa !42
  %7 = getelementptr inbounds nuw %struct.PaPulseAudio_Stream, ptr %6, i32 0, i32 10
  %8 = load ptr, ptr %7, align 8, !tbaa !44
  %9 = call i32 @pa_stream_peek(ptr noundef %8, ptr noundef %5, ptr noundef %4)
  %10 = icmp ne i32 %9, 0
  br i1 %10, label %11, label %12

11:                                               ; preds = %2
  br label %17

12:                                               ; preds = %2
  %13 = load ptr, ptr %3, align 8, !tbaa !42
  %14 = getelementptr inbounds nuw %struct.PaPulseAudio_Stream, ptr %13, i32 0, i32 25
  %15 = load ptr, ptr %5, align 8, !tbaa !19
  %16 = load i64, ptr %4, align 8, !tbaa !12
  call void @_PaPulseAudio_WriteRingBuffer(ptr noundef %14, ptr noundef %15, i64 noundef %16)
  br label %17

17:                                               ; preds = %12, %11
  %18 = load ptr, ptr %3, align 8, !tbaa !42
  %19 = getelementptr inbounds nuw %struct.PaPulseAudio_Stream, ptr %18, i32 0, i32 10
  %20 = load ptr, ptr %19, align 8, !tbaa !44
  %21 = call i32 @pa_stream_drop(ptr noundef %20)
  store ptr null, ptr %5, align 8, !tbaa !19
  call void @llvm.lifetime.end.p0(i64 8, ptr %5) #6
  ret void
}

; Function Attrs: nounwind uwtable
define void @PaPulseAudio_StreamRecordCb(ptr noundef %0, i64 noundef %1, ptr noundef %2) #0 {
  %4 = alloca ptr, align 8
  %5 = alloca i64, align 8
  %6 = alloca ptr, align 8
  %7 = alloca ptr, align 8
  store ptr %0, ptr %4, align 8, !tbaa !3
  store i64 %1, ptr %5, align 8, !tbaa !12
  store ptr %2, ptr %6, align 8, !tbaa !19
  call void @llvm.lifetime.start.p0(i64 8, ptr %7) #6
  %8 = load ptr, ptr %6, align 8, !tbaa !19
  store ptr %8, ptr %7, align 8, !tbaa !42
  %9 = load ptr, ptr %7, align 8, !tbaa !42
  %10 = load i64, ptr %5, align 8, !tbaa !12
  call void @_PaPulseAudio_Read(ptr noundef %9, i64 noundef %10)
  %11 = load ptr, ptr %7, align 8, !tbaa !42
  %12 = getelementptr inbounds nuw %struct.PaPulseAudio_Stream, ptr %11, i32 0, i32 2
  %13 = getelementptr inbounds nuw %struct.PaUtilBufferProcessor, ptr %12, i32 0, i32 37
  %14 = load ptr, ptr %13, align 8, !tbaa !54
  %15 = icmp ne ptr %14, null
  br i1 %15, label %16, label %20

16:                                               ; preds = %3
  %17 = load ptr, ptr %7, align 8, !tbaa !42
  %18 = load i64, ptr %5, align 8, !tbaa !12
  %19 = call i32 @_PaPulseAudio_ProcessAudio(ptr noundef %17, i64 noundef %18)
  br label %20

20:                                               ; preds = %16, %3
  %21 = load ptr, ptr %7, align 8, !tbaa !42
  %22 = getelementptr inbounds nuw %struct.PaPulseAudio_Stream, ptr %21, i32 0, i32 5
  %23 = load ptr, ptr %22, align 8, !tbaa !55
  call void @pa_threaded_mainloop_signal(ptr noundef %23, i32 noundef 0)
  call void @llvm.lifetime.end.p0(i64 8, ptr %7) #6
  ret void
}