; Function Attrs: nounwind uwtable
define void @PaPulseAudio_StreamRecordCb(ptr readnone captures(none) %0, i64 noundef %1, ptr noundef %2) #0 {
  %4 = alloca [768800 x i8], align 16
  %5 = alloca i64, align 8
  %6 = alloca ptr, align 8
  call void @llvm.lifetime.start.p0(i64 8, ptr nonnull %5)
  store i64 %1, ptr %5, align 8, !tbaa !7
  call void @llvm.lifetime.start.p0(i64 8, ptr nonnull %6) #5
  store ptr null, ptr %6, align 8, !tbaa !32
  %7 = getelementptr inbounds nuw i8, ptr %2, i64 472
  %8 = load ptr, ptr %7, align 8, !tbaa !33
  %9 = call i32 @pa_stream_peek(ptr noundef %8, ptr noundef nonnull %6, ptr noundef nonnull %5) #5
  %.not.i = icmp eq i32 %9, 0
  br i1 %.not.i, label %10, label %_PaPulseAudio_Read.exit

10:                                               ; preds = %3
  %11 = getelementptr inbounds nuw i8, ptr %2, i64 584
  %12 = load ptr, ptr %6, align 8, !tbaa !32
  %13 = load i64, ptr %5, align 8, !tbaa !7
  %14 = call i64 @PaUtil_GetRingBufferWriteAvailable(ptr noundef nonnull %11) #5
  %15 = icmp ult i64 %14, %13
  br i1 %15, label %16, label %_PaPulseAudio_WriteRingBuffer.exit.i

16:                                               ; preds = %10
  call void @llvm.lifetime.start.p0(i64 768800, ptr nonnull %4) #5
  %17 = call i64 @PaUtil_ReadRingBuffer(ptr noundef nonnull %11, ptr noundef nonnull %4, i64 noundef %13) #5
  call void @llvm.lifetime.end.p0(i64 768800, ptr nonnull %4) #5
  br label %_PaPulseAudio_WriteRingBuffer.exit.i

_PaPulseAudio_WriteRingBuffer.exit.i:             ; preds = %16, %10
  %18 = call i64 @PaUtil_WriteRingBuffer(ptr noundef nonnull %11, ptr noundef %12, i64 noundef %13) #5
  br label %_PaPulseAudio_Read.exit

_PaPulseAudio_Read.exit:                          ; preds = %3, %_PaPulseAudio_WriteRingBuffer.exit.i
  %19 = load ptr, ptr %7, align 8, !tbaa !33
  %20 = call i32 @pa_stream_drop(ptr noundef %19) #5
  call void @llvm.lifetime.end.p0(i64 8, ptr nonnull %6) #5
  call void @llvm.lifetime.end.p0(i64 8, ptr nonnull %5)
  %21 = getelementptr inbounds nuw i8, ptr %2, i64 392
  %22 = load ptr, ptr %21, align 8, !tbaa !45
  %.not = icmp eq ptr %22, null
  br i1 %.not, label %24, label %23

23:                                               ; preds = %_PaPulseAudio_Read.exit
  call fastcc void @_PaPulseAudio_ProcessAudio(ptr noundef nonnull %2, i64 noundef %1)
  br label %24

24:                                               ; preds = %23, %_PaPulseAudio_Read.exit
  %25 = getelementptr inbounds nuw i8, ptr %2, i64 424
  %26 = load ptr, ptr %25, align 8, !tbaa !46
  call void @pa_threaded_mainloop_signal(ptr noundef %26, i32 noundef 0) #5
  ret void
}